target datalayout = "e-m:e-p270:32:32-p271:32:32-p272:64:64-i64:64-i128:128-f80:128-n8:16:32:64-S128"
target triple = "x86_64-pc-linux-gnu"

%struct.lzma_next_coder_s = type { ptr, i64, i64, ptr, ptr, ptr, ptr, ptr, ptr, ptr }
%struct.lzma_alone_coder = type { %struct.lzma_next_coder_s, i32, i8, i64, i64, i64, i64, %struct.lzma_options_lzma }
%struct.lzma_options_lzma = type { i32, ptr, i32, i32, i32, i32, i32, i32, i32, i32, i32, i32, i32, i32, i32, i32, i32, i32, i32, i32, i32, i32, ptr, ptr }

; Function Attrs: nounwind uwtable
define internal i32 @alone_decoder_memconfig(ptr noundef %0, ptr noundef %1, ptr noundef %2, i64 noundef %3) #0 {
  %5 = alloca i32, align 4
  %6 = alloca ptr, align 8
  %7 = alloca ptr, align 8
  %8 = alloca ptr, align 8
  %9 = alloca i64, align 8
  %10 = alloca ptr, align 8
  %11 = alloca i32, align 4
  store ptr %0, ptr %6, align 8, !tbaa !9
  store ptr %1, ptr %7, align 8, !tbaa !38
  store ptr %2, ptr %8, align 8, !tbaa !38
  store i64 %3, ptr %9, align 8, !tbaa !10
  call void @llvm.lifetime.start.p0(i64 8, ptr %10) #6
  %12 = load ptr, ptr %6, align 8, !tbaa !9
  store ptr %12, ptr %10, align 8, !tbaa !9
  %13 = load ptr, ptr %10, align 8, !tbaa !9
  %14 = getelementptr inbounds nuw %struct.lzma_alone_coder, ptr %13, i32 0, i32 6
  %15 = load i64, ptr %14, align 8, !tbaa !36
  %16 = load ptr, ptr %7, align 8, !tbaa !38
  store i64 %15, ptr %16, align 8, !tbaa !10
  %17 = load ptr, ptr %10, align 8, !tbaa !9
  %18 = getelementptr inbounds nuw %struct.lzma_alone_coder, ptr %17, i32 0, i32 5
  %19 = load i64, ptr %18, align 8, !tbaa !35
  %20 = load ptr, ptr %8, align 8, !tbaa !38
  store i64 %19, ptr %20, align 8, !tbaa !10
  %21 = load i64, ptr %9, align 8, !tbaa !10
  %22 = icmp ne i64 %21, 0
  br i1 %22, label %23, label %34

23:                                               ; preds = %4
  %24 = load i64, ptr %9, align 8, !tbaa !10
  %25 = load ptr, ptr %10, align 8, !tbaa !9
  %26 = getelementptr inbounds nuw %struct.lzma_alone_coder, ptr %25, i32 0, i32 6
  %27 = load i64, ptr %26, align 8, !tbaa !36
  %28 = icmp ult i64 %24, %27
  br i1 %28, label %29, label %30

29:                                               ; preds = %23
  store i32 6, ptr %5, align 4
  store i32 1, ptr %11, align 4
  br label %35

30:                                               ; preds = %23
  %31 = load i64, ptr %9, align 8, !tbaa !10
  %32 = load ptr, ptr %10, align 8, !tbaa !9
  %33 = getelementptr inbounds nuw %struct.lzma_alone_coder, ptr %32, i32 0, i32 5
  store i64 %31, ptr %33, align 8, !tbaa !35
  br label %34

34:                                               ; preds = %30, %4
  store i32 0, ptr %5, align 4
  store i32 1, ptr %11, align 4
  br label %35

35:                                               ; preds = %34, %29
  call void @llvm.lifetime.end.p0(i64 8, ptr %10) #6
  %36 = load i32, ptr %5, align 4
  ret i32 %36
}